target datalayout = "e-m:e-p270:32:32-p271:32:32-p272:64:64-i64:64-i128:128-f80:128-n8:16:32:64-S128"
target triple = "x86_64-unknown-linux-gnu"

; Function Attrs: mustprogress uwtable
define dso_local noundef i32 @_ZN6btDbvt8maxdepthEPK10btDbvtNode(ptr noundef %node) #2 align 2 {
entry:
  %node.addr = alloca ptr, align 8
  %depth = alloca i32, align 4
  store ptr %node, ptr %node.addr, align 8
  store i32 0, ptr %depth, align 4
  %0 = load ptr, ptr %node.addr, align 8
  %tobool = icmp ne ptr %0, null
  br i1 %tobool, label %if.then, label %if.end

if.then:                                          ; preds = %entry
  %1 = load ptr, ptr %node.addr, align 8
  call void @_ZL11getmaxdepthPK10btDbvtNodeiRi(ptr noundef %1, i32 noundef 1, ptr noundef nonnull align 4 dereferenceable(4) %depth)
  br label %if.end

if.end:                                           ; preds = %if.then, %entry
  %2 = load i32, ptr %depth, align 4
  ret i32 %2
}