; Function Attrs: mustprogress nofree nosync nounwind memory(readwrite, inaccessiblemem: none) uwtable
define dso_local noundef i32 @_ZN6btDbvt8maxdepthEPK10btDbvtNode(ptr noundef readonly %node) local_unnamed_addr #7 align 2 {
entry:
  %depth = alloca i32, align 4
  store i32 0, ptr %depth, align 4
  %tobool.not = icmp eq ptr %node, null
  br i1 %tobool.not, label %if.end, label %if.then

if.then:                                          ; preds = %entry
  call fastcc void @_ZL11getmaxdepthPK10btDbvtNodeiRi(ptr noundef nonnull %node, i32 noundef 1, ptr noundef nonnull align 4 dereferenceable(4) %depth)
  %.pre = load i32, ptr %depth, align 4
  br label %if.end

if.end:                                           ; preds = %if.then, %entry
  %0 = phi i32 [ %.pre, %if.then ], [ 0, %entry ]
  ret i32 %0
}